; Function Attrs: mustprogress nofree norecurse nosync nounwind willreturn memory(read, inaccessiblemem: none) uwtable
define dso_local noundef zeroext i1 @_ZNK8cmTarget11IsSyntheticEv(ptr noundef nonnull readonly align 8 captures(none) dereferenceable(8) %0) local_unnamed_addr #6 align 2 {
  %2 = load ptr, ptr %0, align 8, !tbaa !22
  %3 = getelementptr inbounds nuw i8, ptr %2, i64 256
  %4 = load i32, ptr %3, align 8, !tbaa !219
  %5 = icmp ult i32 %4, 5
  %switch.cast = trunc i32 %4 to i5
  %switch.downshift = lshr i5 2, %switch.cast
  %switch.masked = trunc i5 %switch.downshift to i1
  %.0 = select i1 %5, i1 %switch.masked, i1 false
  ret i1 %.0
}